; Function Attrs: nounwind uwtable
define hidden void @zif_date_isodate_set(ptr noundef %0, ptr nocapture noundef writeonly %1) #0 {
  %3 = alloca ptr, align 8
  %4 = alloca i64, align 8
  %5 = alloca i64, align 8
  %6 = alloca i64, align 8
  store i64 1, ptr %6, align 8
  %7 = getelementptr inbounds i8, ptr %0, i64 32
  %8 = getelementptr inbounds i8, ptr %0, i64 44
  %9 = load i32, ptr %8, align 4
  %10 = getelementptr inbounds i8, ptr %0, i64 40
  %11 = load i8, ptr %10, align 8
  %12 = icmp eq i8 %11, 8
  %13 = select i1 %12, ptr %7, ptr null
  %14 = load ptr, ptr @date_ce_date, align 8
  %15 = call i32 (i32, ptr, ptr, ...) @zend_parse_method_parameters(i32 noundef %9, ptr noundef %13, ptr noundef nonnull @.str.51, ptr noundef nonnull %3, ptr noundef %14, ptr noundef nonnull %4, ptr noundef nonnull %5, ptr noundef nonnull %6) #25
  %16 = icmp eq i32 %15, -1
  br i1 %16, label %17, label %20

17:                                               ; preds = %2
  %18 = load ptr, ptr getelementptr inbounds (%struct._zend_executor_globals, ptr @executor_globals, i64 0, i32 50), align 8
  %19 = icmp ne ptr %18, null
  call void @llvm.assume(i1 %19)
  br label %30

20:                                               ; preds = %2
  %21 = load ptr, ptr %3, align 8
  %22 = load i64, ptr %4, align 8
  %23 = load i64, ptr %5, align 8
  %24 = load i64, ptr %6, align 8
  %.val = load ptr, ptr %21, align 8
  call fastcc void @php_date_isodate_set(ptr %.val, i64 noundef %22, i64 noundef %23, i64 noundef %24)
  %25 = load ptr, ptr %3, align 8
  %26 = load ptr, ptr %25, align 8
  %27 = load i32, ptr %26, align 4
  %28 = add i32 %27, 1
  store i32 %28, ptr %26, align 4
  store ptr %26, ptr %1, align 8
  %29 = getelementptr inbounds i8, ptr %1, i64 8
  store i32 776, ptr %29, align 8
  br label %30

30:                                               ; preds = %20, %17
  ret void
}